; ModuleID = '46/1896.c'
source_filename = "46/1896.c"
target datalayout = "e-m:e-p270:32:32-p271:32:32-p272:64:64-i64:64-f80:128-n8:16:32:64-S128"
target triple = "x86_64-pc-linux-gnu"

@.str = private unnamed_addr constant [6 x i8] c"%d %d\00", align 1
@.str.1 = private unnamed_addr constant [3 x i8] c"%d\00", align 1
@.str.2 = private unnamed_addr constant [4 x i8] c"%d\0A\00", align 1

; Function Attrs: noinline nounwind uwtable
define dso_local i32 @main() #0 {
  %1 = alloca i32, align 4
  %2 = alloca [100 x [100 x i32]], align 16
  %3 = alloca i32, align 4
  %4 = alloca i32, align 4
  %5 = alloca i32, align 4
  %6 = alloca i32, align 4
  %7 = alloca i32, align 4
  %8 = alloca i32, align 4
  %9 = alloca i32, align 4
  %10 = alloca i32, align 4
  %11 = alloca i32, align 4
  store i32 0, i32* %1, align 4
  store i32 0, i32* %5, align 4
  store i32 0, i32* %6, align 4
  store i32 0, i32* %8, align 4
  store i32 1, i32* %9, align 4
  %12 = call i32 (i8*, ...) @__isoc99_scanf(i8* getelementptr inbounds ([6 x i8], [6 x i8]* @.str, i64 0, i64 0), i32* %3, i32* %4)
  store i32 0, i32* %10, align 4
  br label %13

13:                                               ; preds = %36, %0
  %14 = load i32, i32* %10, align 4
  %15 = load i32, i32* %3, align 4
  %16 = sub nsw i32 %15, 1
  %17 = icmp sle i32 %14, %16
  br i1 %17, label %18, label %39

18:                                               ; preds = %13
  store i32 0, i32* %11, align 4
  br label %19

19:                                               ; preds = %32, %18
  %20 = load i32, i32* %11, align 4
  %21 = load i32, i32* %4, align 4
  %22 = sub nsw i32 %21, 1
  %23 = icmp sle i32 %20, %22
  br i1 %23, label %24, label %35

24:                                               ; preds = %19
  %25 = load i32, i32* %10, align 4
  %26 = sext i32 %25 to i64
  %27 = getelementptr inbounds [100 x [100 x i32]], [100 x [100 x i32]]* %2, i64 0, i64 %26
  %28 = load i32, i32* %11, align 4
  %29 = sext i32 %28 to i64
  %30 = getelementptr inbounds [100 x i32], [100 x i32]* %27, i64 0, i64 %29
  %31 = call i32 (i8*, ...) @__isoc99_scanf(i8* getelementptr inbounds ([3 x i8], [3 x i8]* @.str.1, i64 0, i64 0), i32* %30)
  br label %32

32:                                               ; preds = %24
  %33 = load i32, i32* %11, align 4
  %34 = add nsw i32 %33, 1
  store i32 %34, i32* %11, align 4
  br label %19

35:                                               ; preds = %19
  br label %36

36:                                               ; preds = %35
  %37 = load i32, i32* %10, align 4
  %38 = add nsw i32 %37, 1
  store i32 %38, i32* %10, align 4
  br label %13

39:                                               ; preds = %13
  %40 = load i32, i32* %3, align 4
  %41 = load i32, i32* %4, align 4
  %42 = mul nsw i32 %40, %41
  store i32 %42, i32* %7, align 4
  store i32 1, i32* %10, align 4
  br label %43

43:                                               ; preds = %165, %39
  %44 = load i32, i32* %10, align 4
  %45 = load i32, i32* %7, align 4
  %46 = icmp sle i32 %44, %45
  br i1 %46, label %47, label %168

47:                                               ; preds = %43
  %48 = load i32, i32* %5, align 4
  %49 = sext i32 %48 to i64
  %50 = getelementptr inbounds [100 x [100 x i32]], [100 x [100 x i32]]* %2, i64 0, i64 %49
  %51 = load i32, i32* %6, align 4
  %52 = sext i32 %51 to i64
  %53 = getelementptr inbounds [100 x i32], [100 x i32]* %50, i64 0, i64 %52
  %54 = load i32, i32* %53, align 4
  %55 = call i32 (i8*, ...) @printf(i8* getelementptr inbounds ([4 x i8], [4 x i8]* @.str.2, i64 0, i64 0), i32 %54)
  %56 = load i32, i32* %5, align 4
  %57 = load i32, i32* %9, align 4
  %58 = sub nsw i32 %57, 1
  %59 = icmp eq i32 %56, %58
  br i1 %59, label %60, label %68

60:                                               ; preds = %47
  %61 = load i32, i32* %6, align 4
  %62 = load i32, i32* %4, align 4
  %63 = sub nsw i32 %62, 1
  %64 = icmp slt i32 %61, %63
  br i1 %64, label %65, label %68

65:                                               ; preds = %60
  %66 = load i32, i32* %6, align 4
  %67 = add nsw i32 %66, 1
  store i32 %67, i32* %6, align 4
  br label %164

68:                                               ; preds = %60, %47
  %69 = load i32, i32* %5, align 4
  %70 = load i32, i32* %3, align 4
  %71 = sub nsw i32 %70, 1
  %72 = icmp slt i32 %69, %71
  br i1 %72, label %73, label %81

73:                                               ; preds = %68
  %74 = load i32, i32* %6, align 4
  %75 = load i32, i32* %4, align 4
  %76 = sub nsw i32 %75, 1
  %77 = icmp eq i32 %74, %76
  br i1 %77, label %78, label %81

78:                                               ; preds = %73
  %79 = load i32, i32* %5, align 4
  %80 = add nsw i32 %79, 1
  store i32 %80, i32* %5, align 4
  br label %163

81:                                               ; preds = %73, %68
  %82 = load i32, i32* %5, align 4
  %83 = load i32, i32* %3, align 4
  %84 = sub nsw i32 %83, 1
  %85 = icmp eq i32 %82, %84
  br i1 %85, label %86, label %94

86:                                               ; preds = %81
  %87 = load i32, i32* %6, align 4
  %88 = load i32, i32* %4, align 4
  %89 = sub nsw i32 %88, 1
  %90 = icmp eq i32 %87, %89
  br i1 %90, label %91, label %94

91:                                               ; preds = %86
  %92 = load i32, i32* %6, align 4
  %93 = sub nsw i32 %92, 1
  store i32 %93, i32* %6, align 4
  br label %162

94:                                               ; preds = %86, %81
  %95 = load i32, i32* %5, align 4
  %96 = load i32, i32* %3, align 4
  %97 = sub nsw i32 %96, 1
  %98 = icmp eq i32 %95, %97
  br i1 %98, label %99, label %111

99:                                               ; preds = %94
  %100 = load i32, i32* %6, align 4
  %101 = load i32, i32* %4, align 4
  %102 = sub nsw i32 %101, 1
  %103 = icmp slt i32 %100, %102
  br i1 %103, label %104, label %111

104:                                              ; preds = %99
  %105 = load i32, i32* %6, align 4
  %106 = load i32, i32* %8, align 4
  %107 = icmp sgt i32 %105, %106
  br i1 %107, label %108, label %111

108:                                              ; preds = %104
  %109 = load i32, i32* %6, align 4
  %110 = sub nsw i32 %109, 1
  store i32 %110, i32* %6, align 4
  br label %161

111:                                              ; preds = %104, %99, %94
  %112 = load i32, i32* %5, align 4
  %113 = load i32, i32* %3, align 4
  %114 = sub nsw i32 %113, 1
  %115 = icmp eq i32 %112, %114
  br i1 %115, label %116, label %123

116:                                              ; preds = %111
  %117 = load i32, i32* %6, align 4
  %118 = load i32, i32* %8, align 4
  %119 = icmp eq i32 %117, %118
  br i1 %119, label %120, label %123

120:                                              ; preds = %116
  %121 = load i32, i32* %5, align 4
  %122 = sub nsw i32 %121, 1
  store i32 %122, i32* %5, align 4
  br label %160

123:                                              ; preds = %116, %111
  %124 = load i32, i32* %5, align 4
  %125 = load i32, i32* %3, align 4
  %126 = sub nsw i32 %125, 1
  %127 = icmp slt i32 %124, %126
  br i1 %127, label %128, label %139

128:                                              ; preds = %123
  %129 = load i32, i32* %6, align 4
  %130 = load i32, i32* %8, align 4
  %131 = icmp eq i32 %129, %130
  br i1 %131, label %132, label %139

132:                                              ; preds = %128
  %133 = load i32, i32* %9, align 4
  %134 = load i32, i32* %5, align 4
  %135 = icmp slt i32 %133, %134
  br i1 %135, label %136, label %139

136:                                              ; preds = %132
  %137 = load i32, i32* %5, align 4
  %138 = sub nsw i32 %137, 1
  store i32 %138, i32* %5, align 4
  br label %159

139:                                              ; preds = %132, %128, %123
  %140 = load i32, i32* %5, align 4
  %141 = load i32, i32* %9, align 4
  %142 = icmp eq i32 %140, %141
  br i1 %142, label %143, label %158

143:                                              ; preds = %139
  %144 = load i32, i32* %6, align 4
  %145 = load i32, i32* %8, align 4
  %146 = icmp eq i32 %144, %145
  br i1 %146, label %147, label %158

147:                                              ; preds = %143
  %148 = load i32, i32* %6, align 4
  %149 = add nsw i32 %148, 1
  store i32 %149, i32* %6, align 4
  %150 = load i32, i32* %8, align 4
  %151 = add nsw i32 %150, 1
  store i32 %151, i32* %8, align 4
  %152 = load i32, i32* %9, align 4
  %153 = add nsw i32 %152, 1
  store i32 %153, i32* %9, align 4
  %154 = load i32, i32* %3, align 4
  %155 = sub nsw i32 %154, 1
  store i32 %155, i32* %3, align 4
  %156 = load i32, i32* %4, align 4
  %157 = sub nsw i32 %156, 1
  store i32 %157, i32* %4, align 4
  br label %158

158:                                              ; preds = %147, %143, %139
  br label %159

159:                                              ; preds = %158, %136
  br label %160

160:                                              ; preds = %159, %120
  br label %161

161:                                              ; preds = %160, %108
  br label %162

162:                                              ; preds = %161, %91
  br label %163

163:                                              ; preds = %162, %78
  br label %164

164:                                              ; preds = %163, %65
  br label %165

165:                                              ; preds = %164
  %166 = load i32, i32* %10, align 4
  %167 = add nsw i32 %166, 1
  store i32 %167, i32* %10, align 4
  br label %43

168:                                              ; preds = %43
  ret i32 0
}

declare dso_local i32 @__isoc99_scanf(i8*, ...) #1

declare dso_local i32 @printf(i8*, ...) #1


!llvm.module.flags = !{!0}
!llvm.ident = !{!1}

!0 = !{i32 1, !"wchar_size", i32 4}
!1 = !{!"clang version 10.0.0-4ubuntu1 "}
